; Function Attrs: mustprogress uwtable
define noundef i32 @cvGetCaptureDomain(ptr noundef %0) local_unnamed_addr #3 {
  %.not = icmp eq ptr %0, null
  br i1 %.not, label %7, label %2

2:                                                ; preds = %1
  %3 = load ptr, ptr %0, align 8, !tbaa !30
  %4 = getelementptr inbounds nuw i8, ptr %3, i64 48
  %5 = load ptr, ptr %4, align 8
  %6 = tail call noundef i32 %5(ptr noundef nonnull align 8 dereferenceable(8) %0)
  br label %7

7:                                                ; preds = %1, %2
  %8 = phi i32 [ %6, %2 ], [ 0, %1 ]
  ret i32 %8
}